target datalayout = "e-m:e-p270:32:32-p271:32:32-p272:64:64-i64:64-i128:128-f80:128-n8:16:32:64-S128"
target triple = "x86_64-pc-linux-gnu"

; Function Attrs: nounwind uwtable
define dso_local i32 @clamfi_abort(ptr noundef %0) #0 {
  %2 = alloca ptr, align 8
  %3 = alloca ptr, align 8
  store ptr %0, ptr %2, align 8
  %4 = load ptr, ptr %2, align 8
  %5 = call ptr @smfi_getpriv(ptr noundef %4)
  store ptr %5, ptr %3, align 8
  %6 = icmp ne ptr %5, null
  br i1 %6, label %7, label %11

7:                                                ; preds = %1
  %8 = load ptr, ptr %2, align 8
  %9 = load ptr, ptr %3, align 8
  call void @nullify(ptr noundef %8, ptr noundef %9, i32 noundef 4)
  %10 = load ptr, ptr %3, align 8
  call void @free(ptr noundef %10) #9
  br label %11

11:                                               ; preds = %7, %1
  ret i32 0
}