; Function Attrs: nounwind uwtable
define dso_local noundef i32 @clamfi_abort(ptr noundef %0) local_unnamed_addr #0 {
  %2 = tail call ptr @smfi_getpriv(ptr noundef %0) #17
  %.not = icmp eq ptr %2, null
  br i1 %.not, label %4, label %3

3:                                                ; preds = %1
  tail call fastcc void @nullify(ptr noundef %0, ptr noundef nonnull %2, i32 noundef 4)
  tail call void @free(ptr noundef nonnull %2) #17
  br label %4

4:                                                ; preds = %3, %1
  ret i32 0
}